target datalayout = "e-m:e-p270:32:32-p271:32:32-p272:64:64-i64:64-i128:128-f80:128-n8:16:32:64-S128"
target triple = "x86_64-pc-linux-gnu"

%struct.preference = type { ptr, ptr, ptr, i32, i32, i32, %union.anon, %union.anon.0, %union.anon.1, %union.anon.2, %struct.pref_custom_cbs, ptr, ptr }
%union.anon = type { ptr }
%union.anon.0 = type { ptr }
%union.anon.1 = type { ptr }
%union.anon.2 = type { %struct.anon }
%struct.anon = type { ptr, i8 }
%struct.pref_custom_cbs = type { ptr, ptr, ptr, ptr, ptr, ptr, ptr }

@.str = private unnamed_addr constant [5 x i8] c"Epan\00", align 1
@.str.1 = private unnamed_addr constant [13 x i8] c"epan/prefs.c\00", align 1
@.str.8 = private unnamed_addr constant [31 x i8] c"assertion \22not reached\22 failed\00", align 1
@__func__.prefs_invert_bool_value = private unnamed_addr constant [24 x i8] c"prefs_invert_bool_value\00", align 1

; Function Attrs: null_pointer_is_valid sspstrong uwtable
define void @prefs_invert_bool_value(ptr noundef %0, i32 noundef %1) #1 {
  %3 = alloca ptr, align 8
  %4 = alloca i32, align 4
  store ptr %0, ptr %3, align 8
  store i32 %1, ptr %4, align 4
  %5 = load i32, ptr %4, align 4
  switch i32 %5, label %35 [
    i32 0, label %6
    i32 1, label %15
    i32 2, label %24
  ]

6:                                                ; preds = %2
  %7 = load ptr, ptr %3, align 8
  %8 = getelementptr inbounds nuw %struct.preference, ptr %7, i32 0, i32 8
  %9 = load i8, ptr %8, align 8, !range !6, !noundef !7
  %10 = trunc i8 %9 to i1
  %11 = xor i1 %10, true
  %12 = load ptr, ptr %3, align 8
  %13 = getelementptr inbounds nuw %struct.preference, ptr %12, i32 0, i32 8
  %14 = zext i1 %11 to i8
  store i8 %14, ptr %13, align 8
  br label %36

15:                                               ; preds = %2
  %16 = load ptr, ptr %3, align 8
  %17 = getelementptr inbounds nuw %struct.preference, ptr %16, i32 0, i32 7
  %18 = load i8, ptr %17, align 8, !range !6, !noundef !7
  %19 = trunc i8 %18 to i1
  %20 = xor i1 %19, true
  %21 = load ptr, ptr %3, align 8
  %22 = getelementptr inbounds nuw %struct.preference, ptr %21, i32 0, i32 7
  %23 = zext i1 %20 to i8
  store i8 %23, ptr %22, align 8
  br label %36

24:                                               ; preds = %2
  %25 = load ptr, ptr %3, align 8
  %26 = getelementptr inbounds nuw %struct.preference, ptr %25, i32 0, i32 6
  %27 = load ptr, ptr %26, align 8
  %28 = load i8, ptr %27, align 1, !range !6, !noundef !7
  %29 = trunc i8 %28 to i1
  %30 = xor i1 %29, true
  %31 = load ptr, ptr %3, align 8
  %32 = getelementptr inbounds nuw %struct.preference, ptr %31, i32 0, i32 6
  %33 = load ptr, ptr %32, align 8
  %34 = zext i1 %30 to i8
  store i8 %34, ptr %33, align 1
  br label %36

35:                                               ; preds = %2
  call void (ptr, i32, ptr, i64, ptr, ptr, ...) @ws_log_fatal_full(ptr noundef @.str, i32 noundef 7, ptr noundef @.str.1, i64 noundef 1296, ptr noundef @__func__.prefs_invert_bool_value, ptr noundef @.str.8) #18
  unreachable

36:                                               ; preds = %24, %15, %6
  ret void
}