; Function Attrs: null_pointer_is_valid sspstrong uwtable
define void @prefs_invert_bool_value(ptr noundef captures(none) %0, i32 noundef %1) local_unnamed_addr #1 {
  switch i32 %1, label %16 [
    i32 0, label %3
    i32 1, label %7
    i32 2, label %11
  ]

3:                                                ; preds = %2
  %4 = getelementptr inbounds nuw i8, ptr %0, i64 56
  %5 = load i8, ptr %4, align 8, !range !6, !noundef !7
  %6 = xor i8 %5, 1
  store i8 %6, ptr %4, align 8
  br label %17

7:                                                ; preds = %2
  %8 = getelementptr inbounds nuw i8, ptr %0, i64 48
  %9 = load i8, ptr %8, align 8, !range !6, !noundef !7
  %10 = xor i8 %9, 1
  store i8 %10, ptr %8, align 8
  br label %17

11:                                               ; preds = %2
  %12 = getelementptr inbounds nuw i8, ptr %0, i64 40
  %13 = load ptr, ptr %12, align 8
  %14 = load i8, ptr %13, align 1, !range !6, !noundef !7
  %15 = xor i8 %14, 1
  store i8 %15, ptr %13, align 1
  br label %17

16:                                               ; preds = %2
  tail call void (ptr, i32, ptr, i64, ptr, ptr, ...) @ws_log_fatal_full(ptr noundef nonnull @.str, i32 noundef 7, ptr noundef nonnull @.str.1, i64 noundef 1296, ptr noundef nonnull @__func__.prefs_invert_bool_value, ptr noundef nonnull @.str.8) #26
  unreachable

17:                                               ; preds = %11, %7, %3
  ret void
}